; ModuleID = '21/1902.c'
source_filename = "21/1902.c"
target datalayout = "e-m:e-p270:32:32-p271:32:32-p272:64:64-i64:64-f80:128-n8:16:32:64-S128"
target triple = "x86_64-pc-linux-gnu"

@.str = private unnamed_addr constant [3 x i8] c"%d\00", align 1
@.str.1 = private unnamed_addr constant [4 x i8] c",%d\00", align 1

; Function Attrs: noinline nounwind uwtable
define dso_local void @main() #0 {
  %1 = alloca i32, align 4
  %2 = alloca i32, align 4
  %3 = alloca i32, align 4
  %4 = alloca [300 x i32], align 16
  %5 = alloca i32, align 4
  %6 = alloca i32, align 4
  %7 = alloca [300 x float], align 16
  %8 = alloca float, align 4
  %9 = alloca float, align 4
  store i32 0, i32* %3, align 4
  store i32 0, i32* %6, align 4
  store float 0.000000e+00, float* %9, align 4
  %10 = call i32 (i8*, ...) @__isoc99_scanf(i8* getelementptr inbounds ([3 x i8], [3 x i8]* @.str, i64 0, i64 0), i32* %5)
  store i32 0, i32* %1, align 4
  br label %11

11:                                               ; preds = %27, %0
  %12 = load i32, i32* %1, align 4
  %13 = load i32, i32* %5, align 4
  %14 = icmp slt i32 %12, %13
  br i1 %14, label %15, label %30

15:                                               ; preds = %11
  %16 = load i32, i32* %1, align 4
  %17 = sext i32 %16 to i64
  %18 = getelementptr inbounds [300 x i32], [300 x i32]* %4, i64 0, i64 %17
  %19 = call i32 (i8*, ...) @__isoc99_scanf(i8* getelementptr inbounds ([3 x i8], [3 x i8]* @.str, i64 0, i64 0), i32* %18)
  %20 = load float, float* %9, align 4
  %21 = load i32, i32* %1, align 4
  %22 = sext i32 %21 to i64
  %23 = getelementptr inbounds [300 x i32], [300 x i32]* %4, i64 0, i64 %22
  %24 = load i32, i32* %23, align 4
  %25 = sitofp i32 %24 to float
  %26 = fadd float %20, %25
  store float %26, float* %9, align 4
  br label %27

27:                                               ; preds = %15
  %28 = load i32, i32* %1, align 4
  %29 = add nsw i32 %28, 1
  store i32 %29, i32* %1, align 4
  br label %11

30:                                               ; preds = %11
  %31 = load float, float* %9, align 4
  %32 = load i32, i32* %5, align 4
  %33 = sitofp i32 %32 to float
  %34 = fdiv float %31, %33
  store float %34, float* %8, align 4
  store i32 0, i32* %1, align 4
  br label %35

35:                                               ; preds = %71, %30
  %36 = load i32, i32* %1, align 4
  %37 = load i32, i32* %5, align 4
  %38 = icmp slt i32 %36, %37
  br i1 %38, label %39, label %74

39:                                               ; preds = %35
  %40 = load i32, i32* %1, align 4
  %41 = sext i32 %40 to i64
  %42 = getelementptr inbounds [300 x i32], [300 x i32]* %4, i64 0, i64 %41
  %43 = load i32, i32* %42, align 4
  %44 = sitofp i32 %43 to float
  %45 = load float, float* %8, align 4
  %46 = fsub float %44, %45
  %47 = fcmp oge float %46, 0.000000e+00
  br i1 %47, label %48, label %59

48:                                               ; preds = %39
  %49 = load i32, i32* %1, align 4
  %50 = sext i32 %49 to i64
  %51 = getelementptr inbounds [300 x i32], [300 x i32]* %4, i64 0, i64 %50
  %52 = load i32, i32* %51, align 4
  %53 = sitofp i32 %52 to float
  %54 = load float, float* %8, align 4
  %55 = fsub float %53, %54
  %56 = load i32, i32* %1, align 4
  %57 = sext i32 %56 to i64
  %58 = getelementptr inbounds [300 x float], [300 x float]* %7, i64 0, i64 %57
  store float %55, float* %58, align 4
  br label %70

59:                                               ; preds = %39
  %60 = load float, float* %8, align 4
  %61 = load i32, i32* %1, align 4
  %62 = sext i32 %61 to i64
  %63 = getelementptr inbounds [300 x i32], [300 x i32]* %4, i64 0, i64 %62
  %64 = load i32, i32* %63, align 4
  %65 = sitofp i32 %64 to float
  %66 = fsub float %60, %65
  %67 = load i32, i32* %1, align 4
  %68 = sext i32 %67 to i64
  %69 = getelementptr inbounds [300 x float], [300 x float]* %7, i64 0, i64 %68
  store float %66, float* %69, align 4
  br label %70

70:                                               ; preds = %59, %48
  br label %71

71:                                               ; preds = %70
  %72 = load i32, i32* %1, align 4
  %73 = add nsw i32 %72, 1
  store i32 %73, i32* %1, align 4
  br label %35

74:                                               ; preds = %35
  store i32 1, i32* %2, align 4
  br label %75

75:                                               ; preds = %92, %74
  %76 = load i32, i32* %2, align 4
  %77 = load i32, i32* %5, align 4
  %78 = icmp slt i32 %76, %77
  br i1 %78, label %79, label %95

79:                                               ; preds = %75
  %80 = load i32, i32* %2, align 4
  %81 = sext i32 %80 to i64
  %82 = getelementptr inbounds [300 x float], [300 x float]* %7, i64 0, i64 %81
  %83 = load float, float* %82, align 4
  %84 = load i32, i32* %3, align 4
  %85 = sext i32 %84 to i64
  %86 = getelementptr inbounds [300 x float], [300 x float]* %7, i64 0, i64 %85
  %87 = load float, float* %86, align 4
  %88 = fcmp ogt float %83, %87
  br i1 %88, label %89, label %91

89:                                               ; preds = %79
  %90 = load i32, i32* %2, align 4
  store i32 %90, i32* %3, align 4
  br label %91

91:                                               ; preds = %89, %79
  br label %92

92:                                               ; preds = %91
  %93 = load i32, i32* %2, align 4
  %94 = add nsw i32 %93, 1
  store i32 %94, i32* %2, align 4
  br label %75

95:                                               ; preds = %75
  store i32 0, i32* %1, align 4
  br label %96

96:                                               ; preds = %125, %95
  %97 = load i32, i32* %1, align 4
  %98 = load i32, i32* %5, align 4
  %99 = icmp slt i32 %97, %98
  br i1 %99, label %100, label %128

100:                                              ; preds = %96
  %101 = load i32, i32* %1, align 4
  %102 = sext i32 %101 to i64
  %103 = getelementptr inbounds [300 x float], [300 x float]* %7, i64 0, i64 %102
  %104 = load float, float* %103, align 4
  %105 = load i32, i32* %3, align 4
  %106 = sext i32 %105 to i64
  %107 = getelementptr inbounds [300 x float], [300 x float]* %7, i64 0, i64 %106
  %108 = load float, float* %107, align 4
  %109 = fcmp oeq float %104, %108
  br i1 %109, label %110, label %124

110:                                              ; preds = %100
  %111 = load i32, i32* %1, align 4
  %112 = sext i32 %111 to i64
  %113 = getelementptr inbounds [300 x i32], [300 x i32]* %4, i64 0, i64 %112
  %114 = load i32, i32* %113, align 4
  %115 = sitofp i32 %114 to float
  %116 = load float, float* %8, align 4
  %117 = fcmp ole float %115, %116
  br i1 %117, label %118, label %124

118:                                              ; preds = %110
  %119 = load i32, i32* %1, align 4
  %120 = sext i32 %119 to i64
  %121 = getelementptr inbounds [300 x i32], [300 x i32]* %4, i64 0, i64 %120
  %122 = load i32, i32* %121, align 4
  %123 = call i32 (i8*, ...) @printf(i8* getelementptr inbounds ([3 x i8], [3 x i8]* @.str, i64 0, i64 0), i32 %122)
  store i32 1, i32* %6, align 4
  br label %124

124:                                              ; preds = %118, %110, %100
  br label %125

125:                                              ; preds = %124
  %126 = load i32, i32* %1, align 4
  %127 = add nsw i32 %126, 1
  store i32 %127, i32* %1, align 4
  br label %96

128:                                              ; preds = %96
  store i32 0, i32* %1, align 4
  br label %129

129:                                              ; preds = %168, %128
  %130 = load i32, i32* %1, align 4
  %131 = load i32, i32* %5, align 4
  %132 = icmp slt i32 %130, %131
  br i1 %132, label %133, label %171

133:                                              ; preds = %129
  %134 = load i32, i32* %1, align 4
  %135 = sext i32 %134 to i64
  %136 = getelementptr inbounds [300 x float], [300 x float]* %7, i64 0, i64 %135
  %137 = load float, float* %136, align 4
  %138 = load i32, i32* %3, align 4
  %139 = sext i32 %138 to i64
  %140 = getelementptr inbounds [300 x float], [300 x float]* %7, i64 0, i64 %139
  %141 = load float, float* %140, align 4
  %142 = fcmp oeq float %137, %141
  br i1 %142, label %143, label %167

143:                                              ; preds = %133
  %144 = load i32, i32* %1, align 4
  %145 = sext i32 %144 to i64
  %146 = getelementptr inbounds [300 x i32], [300 x i32]* %4, i64 0, i64 %145
  %147 = load i32, i32* %146, align 4
  %148 = sitofp i32 %147 to float
  %149 = load float, float* %8, align 4
  %150 = fcmp ogt float %148, %149
  br i1 %150, label %151, label %167

151:                                              ; preds = %143
  %152 = load i32, i32* %6, align 4
  %153 = icmp eq i32 %152, 1
  br i1 %153, label %154, label %160

154:                                              ; preds = %151
  %155 = load i32, i32* %1, align 4
  %156 = sext i32 %155 to i64
  %157 = getelementptr inbounds [300 x i32], [300 x i32]* %4, i64 0, i64 %156
  %158 = load i32, i32* %157, align 4
  %159 = call i32 (i8*, ...) @printf(i8* getelementptr inbounds ([4 x i8], [4 x i8]* @.str.1, i64 0, i64 0), i32 %158)
  br label %166

160:                                              ; preds = %151
  %161 = load i32, i32* %1, align 4
  %162 = sext i32 %161 to i64
  %163 = getelementptr inbounds [300 x i32], [300 x i32]* %4, i64 0, i64 %162
  %164 = load i32, i32* %163, align 4
  %165 = call i32 (i8*, ...) @printf(i8* getelementptr inbounds ([3 x i8], [3 x i8]* @.str, i64 0, i64 0), i32 %164)
  br label %166

166:                                              ; preds = %160, %154
  br label %167

167:                                              ; preds = %166, %143, %133
  br label %168

168:                                              ; preds = %167
  %169 = load i32, i32* %1, align 4
  %170 = add nsw i32 %169, 1
  store i32 %170, i32* %1, align 4
  br label %129

171:                                              ; preds = %129
  ret void
}

declare dso_local i32 @__isoc99_scanf(i8*, ...) #1

declare dso_local i32 @printf(i8*, ...) #1


!llvm.module.flags = !{!0}
!llvm.ident = !{!1}

!0 = !{i32 1, !"wchar_size", i32 4}
!1 = !{!"clang version 10.0.0-4ubuntu1 "}
